; Function Attrs: nounwind uwtable
define hidden noundef zeroext i1 @je_hpa_central_init(ptr noundef %0, ptr noundef %1, ptr noundef readonly captures(none) %2) local_unnamed_addr #1 {
  %4 = tail call zeroext i1 @je_malloc_mutex_init(ptr noundef %0, ptr noundef nonnull @.str, i32 noundef 19, i32 noundef 0) #8
  br i1 %4, label %9, label %5

5:                                                ; preds = %3
  %6 = getelementptr inbounds nuw i8, ptr %0, i64 128
  store ptr %1, ptr %6, align 8, !tbaa !4
  %7 = getelementptr inbounds nuw i8, ptr %0, i64 112
  %8 = getelementptr inbounds nuw i8, ptr %0, i64 136
  tail call void @llvm.memset.p0.i64(ptr noundef nonnull align 8 dereferenceable(16) %7, i8 0, i64 16, i1 false)
  tail call void @llvm.memcpy.p0.p0.i64(ptr noundef nonnull align 8 dereferenceable(56) %8, ptr noundef nonnull align 8 dereferenceable(56) %2, i64 56, i1 false), !tbaa.struct !13
  br label %9

9:                                                ; preds = %3, %5
  ret i1 %4
}